target datalayout = "e-m:e-p270:32:32-p271:32:32-p272:64:64-i64:64-i128:128-f80:128-n8:16:32:64-S128"
target triple = "x86_64-pc-linux-gnu"

%struct.lzma_filter_encoder = type { i64, ptr, ptr, ptr, ptr, i32, ptr }
%struct.lzma_filter = type { i64, ptr }

; Function Attrs: nounwind uwtable
define internal ptr @encoder_find(i64 noundef %0) #1 {
  %2 = alloca ptr, align 8
  %3 = alloca i64, align 8
  %4 = alloca i64, align 8
  store i64 %0, ptr %3, align 8
  store i64 0, ptr %4, align 8
  br label %5

5:                                                ; preds = %19, %1
  %6 = load i64, ptr %4, align 8
  %7 = icmp ult i64 %6, 9
  br i1 %7, label %8, label %22

8:                                                ; preds = %5
  %9 = load i64, ptr %4, align 8
  %10 = getelementptr inbounds [9 x %struct.lzma_filter_encoder], ptr @encoders, i64 0, i64 %9
  %11 = getelementptr inbounds %struct.lzma_filter_encoder, ptr %10, i32 0, i32 0
  %12 = load i64, ptr %11, align 8
  %13 = load i64, ptr %3, align 8
  %14 = icmp eq i64 %12, %13
  br i1 %14, label %15, label %18

15:                                               ; preds = %8
  %16 = load i64, ptr %4, align 8
  %17 = getelementptr inbounds %struct.lzma_filter_encoder, ptr @encoders, i64 %16
  store ptr %17, ptr %2, align 8
  br label %23

18:                                               ; preds = %8
  br label %19

19:                                               ; preds = %18
  %20 = load i64, ptr %4, align 8
  %21 = add i64 %20, 1
  store i64 %21, ptr %4, align 8
  br label %5, !llvm.loop !5

22:                                               ; preds = %5
  store ptr null, ptr %2, align 8
  br label %23

23:                                               ; preds = %22, %15
  %24 = load ptr, ptr %2, align 8
  ret ptr %24
}

; Function Attrs: nounwind uwtable
define dso_local i32 @lzma_properties_size(ptr noundef %0, ptr noundef %1) #1 {
  %3 = alloca i32, align 4
  %4 = alloca ptr, align 8
  %5 = alloca ptr, align 8
  %6 = alloca ptr, align 8
  store ptr %0, ptr %4, align 8
  store ptr %1, ptr %5, align 8
  %7 = load ptr, ptr %5, align 8
  %8 = getelementptr inbounds %struct.lzma_filter, ptr %7, i32 0, i32 0
  %9 = load i64, ptr %8, align 8
  %10 = call ptr @encoder_find(i64 noundef %9)
  store ptr %10, ptr %6, align 8
  %11 = load ptr, ptr %6, align 8
  %12 = icmp eq ptr %11, null
  br i1 %12, label %13, label %19

13:                                               ; preds = %2
  %14 = load ptr, ptr %5, align 8
  %15 = getelementptr inbounds %struct.lzma_filter, ptr %14, i32 0, i32 0
  %16 = load i64, ptr %15, align 8
  %17 = icmp ule i64 %16, 9223372036854775807
  %18 = select i1 %17, i32 8, i32 11
  store i32 %18, ptr %3, align 4
  br label %38

19:                                               ; preds = %2
  %20 = load ptr, ptr %6, align 8
  %21 = getelementptr inbounds %struct.lzma_filter_encoder, ptr %20, i32 0, i32 4
  %22 = load ptr, ptr %21, align 8
  %23 = icmp eq ptr %22, null
  br i1 %23, label %24, label %29

24:                                               ; preds = %19
  %25 = load ptr, ptr %6, align 8
  %26 = getelementptr inbounds %struct.lzma_filter_encoder, ptr %25, i32 0, i32 5
  %27 = load i32, ptr %26, align 8
  %28 = load ptr, ptr %4, align 8
  store i32 %27, ptr %28, align 4
  store i32 0, ptr %3, align 4
  br label %38

29:                                               ; preds = %19
  %30 = load ptr, ptr %6, align 8
  %31 = getelementptr inbounds %struct.lzma_filter_encoder, ptr %30, i32 0, i32 4
  %32 = load ptr, ptr %31, align 8
  %33 = load ptr, ptr %4, align 8
  %34 = load ptr, ptr %5, align 8
  %35 = getelementptr inbounds %struct.lzma_filter, ptr %34, i32 0, i32 1
  %36 = load ptr, ptr %35, align 8
  %37 = call i32 %32(ptr noundef %33, ptr noundef %36)
  store i32 %37, ptr %3, align 4
  br label %38

38:                                               ; preds = %29, %24, %13
  %39 = load i32, ptr %3, align 4
  ret i32 %39
}