; Function Attrs: nounwind uwtable
define dso_local i32 @lzma_properties_size(ptr noundef %0, ptr noundef readonly captures(none) %1) local_unnamed_addr #2 {
  %3 = load i64, ptr %1, align 8
  br label %4

4:                                                ; preds = %8, %2
  %.07.i = phi i64 [ 0, %2 ], [ %9, %8 ]
  %5 = getelementptr inbounds nuw [9 x %struct.lzma_filter_encoder], ptr @encoders, i64 0, i64 %.07.i
  %6 = load i64, ptr %5, align 8
  %7 = icmp eq i64 %6, %3
  br i1 %7, label %encoder_find.exit, label %8

8:                                                ; preds = %4
  %9 = add nuw nsw i64 %.07.i, 1
  %exitcond.not.i = icmp eq i64 %9, 9
  br i1 %exitcond.not.i, label %10, label %4, !llvm.loop !5

10:                                               ; preds = %8
  %11 = icmp sgt i64 %3, -1
  %12 = select i1 %11, i32 8, i32 11
  br label %23

encoder_find.exit:                                ; preds = %4
  %13 = getelementptr inbounds nuw i8, ptr %5, i64 32
  %14 = load ptr, ptr %13, align 8
  %15 = icmp eq ptr %14, null
  br i1 %15, label %16, label %19

16:                                               ; preds = %encoder_find.exit
  %17 = getelementptr inbounds nuw i8, ptr %5, i64 40
  %18 = load i32, ptr %17, align 8
  store i32 %18, ptr %0, align 4
  br label %23

19:                                               ; preds = %encoder_find.exit
  %20 = getelementptr inbounds nuw i8, ptr %1, i64 8
  %21 = load ptr, ptr %20, align 8
  %22 = tail call i32 %14(ptr noundef %0, ptr noundef %21) #9
  br label %23

23:                                               ; preds = %19, %16, %10
  %.0 = phi i32 [ %12, %10 ], [ 0, %16 ], [ %22, %19 ]
  ret i32 %.0
}